(iCrypto.PublicKey.RSA
_RSAobj
p1
(dp2
S'e'
L65537L
sS'd'
L8809801349486280923006355197357442612638239167106862072164485052678544390895885472760558837244372684738472053432698757536041136728862342589937753087525246439489206398203734950581940580473455100182954348742057000569456715833774011044565589613791704400863340876233041762919579362177508149288184960737812619678968236330836921194166463947572391893333945329928412053990551185426660005716065071974157853587291842391195547869167169230099282435156169583213472266217371732212127582189171071218837680136549885079295382852259142567108998107341583107212775298669543662437242231663239639895159876533011672981242942868014552998401L
sS'n'
L19953274503776693145253922469215327498772196581928477316264993672152120671348619236532649451081160237755917990248091597755029305287512142186782918305817738315759058602401098197964080723752033000438563697591518857005822670223875012504413016537153266910401602536829031587519369389653972614732505452442425547964774543077633408964546127270785977886682743107786688731584401350412250736904909761358626527596920116359365680916189489176440188907330762541379119094453847693964585545510351714361902438900443553447997511390495704794409958960043581147551566378536210743021574566731878686843898298157316833897241598092453723585837L
sS'q'
L141968222217013675684685627957847572657700665304234600104913298652158864629852871720833076568610582737099888769437146565438267629182553951401710556454632707641247788605525433013942847110927476640409790100742890844876068288852225631542068315069249068878976883410296712054876885727468985760337319928892141476349L
sS'p'
L140547470357668985913986993531342661501308163815107546520310797153131103868443791007354439051866850639414581865386266794267864291943139265431468120834164833780270112657808570037862652229484634367658860839500276403894465423719509645902929956302672103878928062900178315685859509321471223442001086750060415401713L
sS'u'
L14322387295150326803538328762826134642952515961537257291842067930803394324275120024360447875047822451047797185150624828383700348574790408172847224030904245435293020369463850794261986912630105897779404883666036812899348427971276468888261764396708668371714600387347949265315052883532421903830431951395345111874L
sb.(iCrypto.PublicKey.RSA
_RSAobj
p1
(dp2
S'e'
L65537L
sS'd'
L8809801349486280923006355197357442612638239167106862072164485052678544390895885472760558837244372684738472053432698757536041136728862342589937753087525246439489206398203734950581940580473455100182954348742057000569456715833774011044565589613791704400863340876233041762919579362177508149288184960737812619678968236330836921194166463947572391893333945329928412053990551185426660005716065071974157853587291842391195547869167169230099282435156169583213472266217371732212127582189171071218837680136549885079295382852259142567108998107341583107212775298669543662437242231663239639895159876533011672981242942868014552998401L
sS'n'
L19953274503776693145253922469215327498772196581928477316264993672152120671348619236532649451081160237755917990248091597755029305287512142186782918305817738315759058602401098197964080723752033000438563697591518857005822670223875012504413016537153266910401602536829031587519369389653972614732505452442425547964774543077633408964546127270785977886682743107786688731584401350412250736904909761358626527596920116359365680916189489176440188907330762541379119094453847693964585545510351714361902438900443553447997511390495704794409958960043581147551566378536210743021574566731878686843898298157316833897241598092453723585837L
sS'q'
L141968222217013675684685627957847572657700665304234600104913298652158864629852871720833076568610582737099888769437146565438267629182553951401710556454632707641247788605525433013942847110927476640409790100742890844876068288852225631542068315069249068878976883410296712054876885727468985760337319928892141476349L
sS'p'
L140547470357668985913986993531342661501308163815107546520310797153131103868443791007354439051866850639414581865386266794267864291943139265431468120834164833780270112657808570037862652229484634367658860839500276403894465423719509645902929956302672103878928062900178315685859509321471223442001086750060415401713L
sS'u'
L14322387295150326803538328762826134642952515961537257291842067930803394324275120024360447875047822451047797185150624828383700348574790408172847224030904245435293020369463850794261986912630105897779404883666036812899348427971276468888261764396708668371714600387347949265315052883532421903830431951395345111874L
sb.