(iCrypto.PublicKey.RSA
_RSAobj
p1
(dp2
S'e'
L65537L
sS'n'
L19953274503776693145253922469215327498772196581928477316264993672152120671348619236532649451081160237755917990248091597755029305287512142186782918305817738315759058602401098197964080723752033000438563697591518857005822670223875012504413016537153266910401602536829031587519369389653972614732505452442425547964774543077633408964546127270785977886682743107786688731584401350412250736904909761358626527596920116359365680916189489176440188907330762541379119094453847693964585545510351714361902438900443553447997511390495704794409958960043581147551566378536210743021574566731878686843898298157316833897241598092453723585837L
sb.(iCrypto.PublicKey.RSA
_RSAobj
p1
(dp2
S'e'
L65537L
sS'n'
L19953274503776693145253922469215327498772196581928477316264993672152120671348619236532649451081160237755917990248091597755029305287512142186782918305817738315759058602401098197964080723752033000438563697591518857005822670223875012504413016537153266910401602536829031587519369389653972614732505452442425547964774543077633408964546127270785977886682743107786688731584401350412250736904909761358626527596920116359365680916189489176440188907330762541379119094453847693964585545510351714361902438900443553447997511390495704794409958960043581147551566378536210743021574566731878686843898298157316833897241598092453723585837L
sb.