(iCrypto.PublicKey.RSA
_RSAobj
p1
(dp2
S'e'
L65537L
sS'd'
L7274066559432226279587717827005338449132389723897226052782069104428468599659734779898357822144332234619411205053485695254690319700756150379069747756898472049774546197428366860442667193568711107682782542946581828821925503527296784597090675259331800855711523899136075299224397666560090502024292615728272419752808779666416154056011826312135332842859446652232541595027114457503817691551069480519331204636852052463389653550716703609707444958994930683107073063820026584920013106435807354470668838880750308209796756590505996382156386249793892531873639538328668057115540450025609627336542459133353990420415611235798028774201L
sS'n'
L18751543881741329256395400355129169096518484259727510672272291346297783370015341945096907390546871008938848764724473587299163728994550439656731859290557965728909823157804463632648825074338694090556052374506947776246018633704458536448866443160556513105485825503586554178707050697138364914886758649922660172809927693138911000341697012317579381143507107701068982679281543281873856824631872022252272187788708982363848030012962355062822442038778600410189121984438046656707667619829856184688579376939660467172678360081448949229667983751402834524357918586044617320051271176596854683188409013411382042837456392331134013869211L
sS'q'
L136250518993955209185113180339401258364085708354232500335603323323851684986836880330836687804489025108096027896089938613794694038319025208680168063687467138106472873795758576506675578977301180362861847731317146788558285604998371415186201043710900979740652775412956136578801916072168183210923532811998509877773L
sS'p'
L137625485907860993391926631303886248574577857586556082525690570144714652637898275902656868104214727255627401371353767805303686313103607291396526300738264595267878498679988864526779552447363694269775996412909937008336890623580943663732441515765415256285083473231714376891045828243410041423221766667760945057607L
sS'u'
L110159587646681558967137479597370606317940386152627454042389868017863356656528978248007488611551776869929460833556340886200482994553967741139955301827661787544470876899741052239861169157819705104768904635298546455010700108843757592787860358370235495726170118657450096212858567829248046138633827797813551551484L
sb.(iCrypto.PublicKey.RSA
_RSAobj
p1
(dp2
S'e'
L65537L
sS'd'
L7274066559432226279587717827005338449132389723897226052782069104428468599659734779898357822144332234619411205053485695254690319700756150379069747756898472049774546197428366860442667193568711107682782542946581828821925503527296784597090675259331800855711523899136075299224397666560090502024292615728272419752808779666416154056011826312135332842859446652232541595027114457503817691551069480519331204636852052463389653550716703609707444958994930683107073063820026584920013106435807354470668838880750308209796756590505996382156386249793892531873639538328668057115540450025609627336542459133353990420415611235798028774201L
sS'n'
L18751543881741329256395400355129169096518484259727510672272291346297783370015341945096907390546871008938848764724473587299163728994550439656731859290557965728909823157804463632648825074338694090556052374506947776246018633704458536448866443160556513105485825503586554178707050697138364914886758649922660172809927693138911000341697012317579381143507107701068982679281543281873856824631872022252272187788708982363848030012962355062822442038778600410189121984438046656707667619829856184688579376939660467172678360081448949229667983751402834524357918586044617320051271176596854683188409013411382042837456392331134013869211L
sS'q'
L136250518993955209185113180339401258364085708354232500335603323323851684986836880330836687804489025108096027896089938613794694038319025208680168063687467138106472873795758576506675578977301180362861847731317146788558285604998371415186201043710900979740652775412956136578801916072168183210923532811998509877773L
sS'p'
L137625485907860993391926631303886248574577857586556082525690570144714652637898275902656868104214727255627401371353767805303686313103607291396526300738264595267878498679988864526779552447363694269775996412909937008336890623580943663732441515765415256285083473231714376891045828243410041423221766667760945057607L
sS'u'
L110159587646681558967137479597370606317940386152627454042389868017863356656528978248007488611551776869929460833556340886200482994553967741139955301827661787544470876899741052239861169157819705104768904635298546455010700108843757592787860358370235495726170118657450096212858567829248046138633827797813551551484L
sb.